target datalayout = "e-m:e-p270:32:32-p271:32:32-p272:64:64-i64:64-i128:128-f80:128-n8:16:32:64-S128"
target triple = "x86_64-pc-linux-gnu"

%struct.Gia_Man_t_ = type { ptr, ptr, i32, i32, i32, i32, ptr, ptr, i32, i32, i32, ptr, ptr, %struct.Vec_Int_t_, %struct.Vec_Int_t_, i32, i32, i32, %struct.Vec_Int_t_, ptr, ptr, ptr, i32, i32, i32, i32, ptr, ptr, ptr, ptr, ptr, i32, i32, ptr, i32, ptr, ptr, ptr, ptr, ptr, ptr, ptr, ptr, ptr, ptr, ptr, ptr, ptr, ptr, ptr, ptr, ptr, ptr, %struct.Vec_Int_t_, %struct.Vec_Int_t_, ptr, ptr, ptr, ptr, ptr, ptr, ptr, ptr, ptr, ptr, ptr, ptr, ptr, ptr, ptr, ptr, ptr, ptr, ptr, ptr, ptr, i32, float, float, ptr, ptr, i32, ptr, ptr, ptr, ptr, ptr, ptr, ptr, ptr, ptr, ptr, ptr, ptr, ptr, ptr, ptr, i64, i64, ptr, ptr, i32, i32, i32, i32, i32, i32, i32, i32, i32, i32, i32, i32, ptr, ptr, ptr, ptr, ptr, ptr, ptr, ptr, i32, i32, i32, ptr, i32, i32, ptr, ptr, ptr, ptr, ptr, ptr, i32, i32, ptr, %struct.Vec_Int_t_, %struct.Vec_Int_t_, %struct.Vec_Int_t_, ptr, ptr, ptr, i32, i32, i32, i32, ptr, ptr, ptr, ptr, ptr }
%struct.Vec_Int_t_ = type { i32, i32, ptr }

@.str.3 = private unnamed_addr constant [15 x i8] c"Original :    \00", align 1
@.str.10 = private unnamed_addr constant [42 x i8] c"Counter-example verification has failed.\0A\00", align 1
@.str.11 = private unnamed_addr constant [41 x i8] c"Counter-example verification succeeded.\0A\00", align 1
@.str.12 = private unnamed_addr constant [15 x i8] c"Minimized:    \00", align 1

; Function Attrs: inlinehint nounwind uwtable
define internal i32 @Vec_IntSize(ptr noundef %0) #3 {
  %2 = alloca ptr, align 8
  store ptr %0, ptr %2, align 8, !tbaa !50
  %3 = load ptr, ptr %2, align 8, !tbaa !50
  %4 = getelementptr inbounds nuw %struct.Vec_Int_t_, ptr %3, i32 0, i32 1
  %5 = load i32, ptr %4, align 4, !tbaa !51
  ret i32 %5
}

; Function Attrs: inlinehint nounwind uwtable
define internal i32 @Gia_ManPiNum(ptr noundef %0) #3 {
  %2 = alloca ptr, align 8
  store ptr %0, ptr %2, align 8, !tbaa !3
  %3 = load ptr, ptr %2, align 8, !tbaa !3
  %4 = getelementptr inbounds nuw %struct.Gia_Man_t_, ptr %3, i32 0, i32 11
  %5 = load ptr, ptr %4, align 8, !tbaa !48
  %6 = call i32 @Vec_IntSize(ptr noundef %5)
  %7 = load ptr, ptr %2, align 8, !tbaa !3
  %8 = getelementptr inbounds nuw %struct.Gia_Man_t_, ptr %7, i32 0, i32 2
  %9 = load i32, ptr %8, align 8, !tbaa !47
  %10 = sub nsw i32 %6, %9
  ret i32 %10
}

; Function Attrs: nounwind uwtable
define i32 @Bmc_CexCareVerifyAnyPo(ptr noundef %0, ptr noundef %1, ptr noundef %2, i32 noundef %3) #0 {
  %5 = alloca ptr, align 8
  %6 = alloca ptr, align 8
  %7 = alloca ptr, align 8
  %8 = alloca i32, align 4
  %9 = alloca i32, align 4
  %10 = alloca ptr, align 8
  store ptr %0, ptr %5, align 8, !tbaa !95
  store ptr %1, ptr %6, align 8, !tbaa !8
  store ptr %2, ptr %7, align 8, !tbaa !8
  store i32 %3, ptr %8, align 4, !tbaa !15
  call void @llvm.lifetime.start.p0(i64 4, ptr %9) #8
  call void @llvm.lifetime.start.p0(i64 8, ptr %10) #8
  %11 = load ptr, ptr %5, align 8, !tbaa !95
  %12 = call ptr @Gia_ManFromAigSimple(ptr noundef %11)
  store ptr %12, ptr %10, align 8, !tbaa !3
  %13 = load i32, ptr %8, align 4, !tbaa !15
  %14 = icmp ne i32 %13, 0
  br i1 %14, label %15, label %24

15:                                               ; preds = %4
  %16 = call i32 (ptr, ...) @printf(ptr noundef @.str.3)
  %17 = load ptr, ptr %6, align 8, !tbaa !8
  %18 = load ptr, ptr %10, align 8, !tbaa !3
  %19 = call i32 @Gia_ManPiNum(ptr noundef %18)
  call void @Bmc_CexPrint(ptr noundef %17, i32 noundef %19, i32 noundef 0)
  %20 = call i32 (ptr, ...) @printf(ptr noundef @.str.12)
  %21 = load ptr, ptr %7, align 8, !tbaa !8
  %22 = load ptr, ptr %10, align 8, !tbaa !3
  %23 = call i32 @Gia_ManPiNum(ptr noundef %22)
  call void @Bmc_CexPrint(ptr noundef %21, i32 noundef %23, i32 noundef 0)
  br label %24

24:                                               ; preds = %15, %4
  %25 = load ptr, ptr %10, align 8, !tbaa !3
  %26 = load ptr, ptr %6, align 8, !tbaa !8
  %27 = load ptr, ptr %7, align 8, !tbaa !8
  %28 = call i32 @Bmc_CexVerifyAnyPo(ptr noundef %25, ptr noundef %26, ptr noundef %27)
  store i32 %28, ptr %9, align 4, !tbaa !15
  %29 = load i32, ptr %9, align 4, !tbaa !15
  %30 = icmp slt i32 %29, 0
  br i1 %30, label %31, label %33

31:                                               ; preds = %24
  %32 = call i32 (ptr, ...) @printf(ptr noundef @.str.10)
  br label %35

33:                                               ; preds = %24
  %34 = call i32 (ptr, ...) @printf(ptr noundef @.str.11)
  br label %35

35:                                               ; preds = %33, %31
  %36 = load ptr, ptr %10, align 8, !tbaa !3
  call void @Gia_ManStop(ptr noundef %36)
  %37 = load i32, ptr %9, align 4, !tbaa !15
  call void @llvm.lifetime.end.p0(i64 8, ptr %10) #8
  call void @llvm.lifetime.end.p0(i64 4, ptr %9) #8
  ret i32 %37
}