; Function Attrs: nounwind uwtable
define i32 @Bmc_CexCareVerifyAnyPo(ptr noundef %0, ptr noundef %1, ptr noundef %2, i32 noundef %3) local_unnamed_addr #0 {
  %5 = tail call ptr @Gia_ManFromAigSimple(ptr noundef %0) #11
  %.not = icmp eq i32 %3, 0
  br i1 %.not, label %15, label %6

6:                                                ; preds = %4
  %7 = tail call i32 (ptr, ...) @printf(ptr noundef nonnull dereferenceable(1) @.str.3)
  %8 = getelementptr i8, ptr %5, i64 16
  %.val13 = load i32, ptr %8, align 8, !tbaa !33
  %9 = getelementptr i8, ptr %5, i64 64
  %.val14 = load ptr, ptr %9, align 8, !tbaa !40
  %10 = getelementptr i8, ptr %.val14, i64 4
  %.val14.val = load i32, ptr %10, align 4, !tbaa !36
  %11 = sub nsw i32 %.val14.val, %.val13
  tail call void @Bmc_CexPrint(ptr noundef %1, i32 noundef %11, i32 noundef 0) #11
  %12 = tail call i32 (ptr, ...) @printf(ptr noundef nonnull dereferenceable(1) @.str.12)
  %.val = load i32, ptr %8, align 8, !tbaa !33
  %.val12 = load ptr, ptr %9, align 8, !tbaa !40
  %13 = getelementptr i8, ptr %.val12, i64 4
  %.val12.val = load i32, ptr %13, align 4, !tbaa !36
  %14 = sub nsw i32 %.val12.val, %.val
  tail call void @Bmc_CexPrint(ptr noundef %2, i32 noundef %14, i32 noundef 0) #11
  br label %15

15:                                               ; preds = %6, %4
  %16 = tail call i32 @Bmc_CexVerifyAnyPo(ptr noundef %5, ptr noundef %1, ptr noundef %2) #11
  %17 = icmp slt i32 %16, 0
  %str.9.str.8 = select i1 %17, ptr @str.9, ptr @str.8
  %puts = tail call i32 @puts(ptr nonnull dereferenceable(1) %str.9.str.8)
  tail call void @Gia_ManStop(ptr noundef %5) #11
  ret i32 %16
}